; Function Attrs: nounwind uwtable
define hidden noundef i32 @dissect_dcom_nospec_data(ptr noundef %0, i32 noundef %1, ptr noundef %2, ptr noundef %3, ptr noundef readnone captures(none) %4, i32 noundef %5) local_unnamed_addr #1 {
  %7 = load i32, ptr @hf_dcom_nospec, align 4
  %8 = tail call ptr @proto_tree_add_item(ptr noundef %3, i32 noundef %7, ptr noundef %0, i32 noundef %1, i32 noundef %5, i32 noundef 0) #11
  %.not.i = icmp eq ptr %8, null
  br i1 %.not.i, label %proto_item_set_generated.exit, label %9

9:                                                ; preds = %6
  %10 = getelementptr inbounds nuw i8, ptr %8, i64 32
  %11 = load ptr, ptr %10, align 8
  %.not5.i = icmp eq ptr %11, null
  br i1 %.not5.i, label %proto_item_set_generated.exit, label %12

12:                                               ; preds = %9
  %13 = getelementptr inbounds nuw i8, ptr %11, i64 28
  %14 = load i32, ptr %13, align 4
  %15 = or i32 %14, 2
  store i32 %15, ptr %13, align 4
  br label %proto_item_set_generated.exit

proto_item_set_generated.exit:                    ; preds = %6, %9, %12
  %16 = tail call ptr @expert_add_info(ptr noundef %2, ptr noundef %8, ptr noundef nonnull @ei_dcom_no_spec) #11
  %17 = add i32 %5, %1
  ret i32 %17
}